target datalayout = "e-m:e-p270:32:32-p271:32:32-p272:64:64-i64:64-i128:128-f80:128-n8:16:32:64-S128"
target triple = "x86_64-pc-linux-gnu"

%struct.expert_field = type { i32, i32 }
%struct.ieee80211_tagged_field_data = type { i32, ptr, i8, ptr, ptr }

@ei_ieee80211_tag_length = internal global %struct.expert_field zeroinitializer, align 4
@hf_ieee80211_tag_ibss_atim_window = internal global i32 0, align 4
@.str.9938 = private unnamed_addr constant [33 x i8] c"Tag length %u wrong, must be = 2\00", align 1
@.str.9939 = private unnamed_addr constant [19 x i8] c": ATIM window 0x%x\00", align 1

; Function Attrs: null_pointer_is_valid sspstrong uwtable
define internal i32 @ieee80211_tag_ibss_parameter(ptr noundef %0, ptr noundef %1, ptr noundef %2, ptr noundef %3) #1 {
  %5 = alloca i32, align 4
  %6 = alloca ptr, align 8
  %7 = alloca ptr, align 8
  %8 = alloca ptr, align 8
  %9 = alloca ptr, align 8
  %10 = alloca i32, align 4
  %11 = alloca ptr, align 8
  %12 = alloca i32, align 4
  %13 = alloca i32, align 4
  store ptr %0, ptr %6, align 8
  store ptr %1, ptr %7, align 8
  store ptr %2, ptr %8, align 8
  store ptr %3, ptr %9, align 8
  call void @llvm.lifetime.start.p0(i64 4, ptr %10) #19
  %14 = load ptr, ptr %6, align 8
  %15 = call i32 @tvb_reported_length(ptr noundef %14)
  store i32 %15, ptr %10, align 4
  call void @llvm.lifetime.start.p0(i64 8, ptr %11) #19
  %16 = load ptr, ptr %9, align 8
  store ptr %16, ptr %11, align 8
  call void @llvm.lifetime.start.p0(i64 4, ptr %12) #19
  store i32 0, ptr %12, align 4
  %17 = load i32, ptr %10, align 4
  %18 = icmp ne i32 %17, 2
  br i1 %18, label %19, label %26

19:                                               ; preds = %4
  %20 = load ptr, ptr %7, align 8
  %21 = load ptr, ptr %11, align 8
  %22 = getelementptr inbounds nuw %struct.ieee80211_tagged_field_data, ptr %21, i32 0, i32 4
  %23 = load ptr, ptr %22, align 8
  %24 = load i32, ptr %10, align 4
  %25 = call ptr (ptr, ptr, ptr, ptr, ...) @expert_add_info_format(ptr noundef %20, ptr noundef %23, ptr noundef @ei_ieee80211_tag_length, ptr noundef @.str.9938, i32 noundef %24)
  store i32 1, ptr %5, align 4
  store i32 1, ptr %13, align 4
  br label %42

26:                                               ; preds = %4
  %27 = load ptr, ptr %8, align 8
  %28 = load i32, ptr @hf_ieee80211_tag_ibss_atim_window, align 4
  %29 = load ptr, ptr %6, align 8
  %30 = load i32, ptr %12, align 4
  %31 = call ptr @proto_tree_add_item(ptr noundef %27, i32 noundef %28, ptr noundef %29, i32 noundef %30, i32 noundef 2, i32 noundef -2147483648)
  %32 = load ptr, ptr %11, align 8
  %33 = getelementptr inbounds nuw %struct.ieee80211_tagged_field_data, ptr %32, i32 0, i32 3
  %34 = load ptr, ptr %33, align 8
  %35 = load ptr, ptr %6, align 8
  %36 = load i32, ptr %12, align 4
  %37 = call zeroext i16 @tvb_get_letohs(ptr noundef %35, i32 noundef %36)
  %38 = zext i16 %37 to i32
  call void (ptr, ptr, ...) @proto_item_append_text(ptr noundef %34, ptr noundef @.str.9939, i32 noundef %38)
  %39 = load i32, ptr %12, align 4
  %40 = add i32 %39, 2
  store i32 %40, ptr %12, align 4
  %41 = load i32, ptr %12, align 4
  store i32 %41, ptr %5, align 4
  store i32 1, ptr %13, align 4
  br label %42

42:                                               ; preds = %26, %19
  call void @llvm.lifetime.end.p0(i64 4, ptr %12) #19
  call void @llvm.lifetime.end.p0(i64 8, ptr %11) #19
  call void @llvm.lifetime.end.p0(i64 4, ptr %10) #19
  %43 = load i32, ptr %5, align 4
  ret i32 %43
}